target datalayout = "e-m:e-p270:32:32-p271:32:32-p272:64:64-i64:64-i128:128-f80:128-n8:16:32:64-S128"
target triple = "x86_64-pc-linux-gnu"

@.str = private unnamed_addr constant [35 x i8] c"../openssl/crypto/pkcs7/pk7_doit.c\00", align 1
@__func__.PKCS7_find_digest = private unnamed_addr constant [18 x i8] c"PKCS7_find_digest\00", align 1

; Function Attrs: nounwind uwtable
define internal ptr @PKCS7_find_digest(ptr noundef %0, ptr noundef %1, i32 noundef %2) #0 {
  %4 = alloca ptr, align 8
  %5 = alloca ptr, align 8
  %6 = alloca ptr, align 8
  %7 = alloca i32, align 4
  store ptr %0, ptr %5, align 8, !tbaa !118
  store ptr %1, ptr %6, align 8, !tbaa !20
  store i32 %2, ptr %7, align 4, !tbaa !8
  br label %8

8:                                                ; preds = %31, %3
  %9 = load ptr, ptr %6, align 8, !tbaa !20
  %10 = call ptr @BIO_find_type(ptr noundef %9, i32 noundef 520)
  store ptr %10, ptr %6, align 8, !tbaa !20
  %11 = load ptr, ptr %6, align 8, !tbaa !20
  %12 = icmp eq ptr %11, null
  br i1 %12, label %13, label %14

13:                                               ; preds = %8
  call void @ERR_new()
  call void @ERR_set_debug(ptr noundef @.str, i32 noundef 723, ptr noundef @__func__.PKCS7_find_digest)
  call void (i32, i32, ptr, ...) @ERR_set_error(i32 noundef 33, i32 noundef 108, ptr noundef null)
  store ptr null, ptr %4, align 8
  br label %34

14:                                               ; preds = %8
  %15 = load ptr, ptr %6, align 8, !tbaa !20
  %16 = load ptr, ptr %5, align 8, !tbaa !118
  %17 = call i64 @BIO_ctrl(ptr noundef %15, i32 noundef 120, i64 noundef 0, ptr noundef %16)
  %18 = load ptr, ptr %5, align 8, !tbaa !118
  %19 = load ptr, ptr %18, align 8, !tbaa !102
  %20 = icmp eq ptr %19, null
  br i1 %20, label %21, label %22

21:                                               ; preds = %14
  call void @ERR_new()
  call void @ERR_set_debug(ptr noundef @.str, i32 noundef 728, ptr noundef @__func__.PKCS7_find_digest)
  call void (i32, i32, ptr, ...) @ERR_set_error(i32 noundef 33, i32 noundef 786691, ptr noundef null)
  store ptr null, ptr %4, align 8
  br label %34

22:                                               ; preds = %14
  %23 = load ptr, ptr %5, align 8, !tbaa !118
  %24 = load ptr, ptr %23, align 8, !tbaa !102
  %25 = call ptr @EVP_MD_CTX_get0_md(ptr noundef %24)
  %26 = call i32 @EVP_MD_get_type(ptr noundef %25)
  %27 = load i32, ptr %7, align 4, !tbaa !8
  %28 = icmp eq i32 %26, %27
  br i1 %28, label %29, label %31

29:                                               ; preds = %22
  %30 = load ptr, ptr %6, align 8, !tbaa !20
  store ptr %30, ptr %4, align 8
  br label %34

31:                                               ; preds = %22
  %32 = load ptr, ptr %6, align 8, !tbaa !20
  %33 = call ptr @BIO_next(ptr noundef %32)
  store ptr %33, ptr %6, align 8, !tbaa !20
  br label %8

34:                                               ; preds = %29, %21, %13
  %35 = load ptr, ptr %4, align 8
  ret ptr %35
}