; Function Attrs: nounwind uwtable
define internal fastcc noundef ptr @PKCS7_find_digest(ptr noundef nonnull %0, ptr noundef %1, i32 noundef %2) unnamed_addr #0 {
  %4 = tail call ptr @BIO_find_type(ptr noundef %1, i32 noundef 520) #4
  %5 = icmp eq ptr %4, null
  br i1 %5, label %.loopexit.sink.split, label %.lr.ph

.lr.ph:                                           ; preds = %3, %14
  %6 = phi ptr [ %16, %14 ], [ %4, %3 ]
  %7 = tail call i64 @BIO_ctrl(ptr noundef nonnull %6, i32 noundef 120, i64 noundef 0, ptr noundef nonnull %0) #4
  %8 = load ptr, ptr %0, align 8, !tbaa !88
  %9 = icmp eq ptr %8, null
  br i1 %9, label %.loopexit.sink.split, label %10

10:                                               ; preds = %.lr.ph
  %11 = tail call ptr @EVP_MD_CTX_get0_md(ptr noundef nonnull %8) #4
  %12 = tail call i32 @EVP_MD_get_type(ptr noundef %11) #4
  %13 = icmp eq i32 %12, %2
  br i1 %13, label %.loopexit, label %14

14:                                               ; preds = %10
  %15 = tail call ptr @BIO_next(ptr noundef nonnull %6) #4
  %16 = tail call ptr @BIO_find_type(ptr noundef %15, i32 noundef 520) #4
  %17 = icmp eq ptr %16, null
  br i1 %17, label %.loopexit.sink.split, label %.lr.ph

.loopexit.sink.split:                             ; preds = %.lr.ph, %14, %3
  %.sink18 = phi i32 [ 723, %3 ], [ 723, %14 ], [ 728, %.lr.ph ]
  %.sink = phi i32 [ 108, %3 ], [ 108, %14 ], [ 786691, %.lr.ph ]
  tail call void @ERR_new() #4
  tail call void @ERR_set_debug(ptr noundef nonnull @.str, i32 noundef %.sink18, ptr noundef nonnull @__func__.PKCS7_find_digest) #4
  tail call void (i32, i32, ptr, ...) @ERR_set_error(i32 noundef 33, i32 noundef %.sink, ptr noundef null) #4
  br label %.loopexit

.loopexit:                                        ; preds = %10, %.loopexit.sink.split
  %.0 = phi ptr [ null, %.loopexit.sink.split ], [ %6, %10 ]
  ret ptr %.0
}